Certificate:
    Data:
        Version: 3 (0x2)
        Serial Number: 5 (0x5)
    Signature Algorithm: sha256WithRSAEncryption
        Issuer: CN=BCC CA
        Validity
            Not Before: Jan  4 02:23:30 2017 GMT
            Not After : Jan  2 02:23:30 2027 GMT
        Subject: C=CN, ST=Shanghai, O=BCC, CN=*.jingwei.com/emailAddress=admin@jingwei.com
        Subject Public Key Info:
            Public Key Algorithm: rsaEncryption
                Public-Key: (2048 bit)
                Modulus:
                    00:a3:a4:8d:52:8f:12:a2:56:15:fc:ed:42:91:da:
                    15:c5:76:59:f0:00:2b:89:5f:11:f4:0b:d3:52:7e:
                    5a:10:c1:f0:ed:db:9e:1f:0a:23:da:51:61:0c:f3:
                    77:5a:67:bd:db:00:6f:f4:f6:12:f2:53:55:63:91:
                    39:12:54:b0:08:31:93:0d:41:9d:05:64:04:8e:a7:
                    06:39:bf:6f:23:59:fc:19:ee:61:82:7b:25:60:fb:
                    84:f3:a3:52:a7:02:14:bf:1a:4b:83:c5:f0:b5:3a:
                    cd:fe:e6:cd:47:ee:0e:b3:74:d4:e4:f1:70:96:ee:
                    84:47:34:f0:34:ef:54:c6:79:50:d4:90:b8:5a:a1:
                    c6:b4:eb:be:6c:80:55:64:44:75:02:7e:51:0f:d6:
                    d5:98:22:77:94:8e:39:10:6b:52:2e:f4:cc:04:92:
                    42:80:bd:aa:80:df:05:2b:6d:c0:0c:5f:10:50:fc:
                    81:8a:a4:de:2c:de:13:d9:9b:76:8d:bd:98:6f:32:
                    a5:35:ae:c8:c6:77:81:03:d0:bb:74:19:33:c6:70:
                    1b:a0:37:5d:91:89:b1:41:fa:be:55:5d:c1:98:06:
                    ae:18:fa:c0:ad:62:ff:24:2a:23:ef:15:66:b2:f4:
                    af:b8:0d:1c:fd:7b:04:ed:81:10:87:0c:2d:c0:2f:
                    cd:9f
                Exponent: 65537 (0x10001)
        X509v3 extensions:
            X509v3 Basic Constraints: 
                CA:FALSE
            Netscape Comment: 
                OpenSSL Generated Certificate
            X509v3 Subject Key Identifier: 
                E3:F6:00:66:E3:F1:1A:E0:6D:E8:99:5C:FB:49:88:FF:DF:AC:F3:C9
            X509v3 Authority Key Identifier: 
                keyid:77:F9:94:89:7E:E9:59:77:41:47:24:EA:05:6E:58:ED:C0:1E:11:44

    Signature Algorithm: sha256WithRSAEncryption
         15:cb:72:f1:44:1b:01:c4:df:69:a1:37:2e:7a:44:31:bd:30:
         fe:7f:1b:2c:85:bb:b1:16:16:7f:58:1d:64:5d:fb:66:c6:8b:
         22:63:ef:60:cd:65:58:05:8d:74:16:c9:8f:ed:7c:56:8d:72:
         37:2b:6a:87:c7:2f:14:67:08:c0:64:e6:50:ed:15:36:21:20:
         91:4b:37:c5:26:73:bf:a8:9d:f5:c3:6b:0e:08:0f:79:df:24:
         82:39:d3:2a:b1:68:74:bb:80:ff:ab:25:ec:84:3a:c7:be:59:
         db:b5:15:3e:ee:6d:76:cd:0d:73:34:2c:7a:a4:a9:99:e2:be:
         b3:63:5d:8f:75:f1:21:c6:e2:b0:82:28:03:23:9c:4c:80:82:
         ff:7c:4b:1c:71:50:1b:e9:3f:ea:0a:a8:0e:a9:04:7f:b0:87:
         a3:c5:d6:4d:bc:05:f5:b8:37:39:f9:85:77:d1:4d:09:c0:96:
         d7:8d:64:83:b2:c9:ef:89:9d:e6:46:89:e8:39:b8:dd:74:ae:
         50:1b:7e:8a:5d:10:d9:c3:f2:ea:84:70:c6:89:b9:0b:69:26:
         c3:4f:92:f3:4d:d3:16:7b:8c:38:f6:71:6d:b6:7f:ad:44:e1:
         b4:31:bb:89:51:d3:85:cd:2e:c1:39:d2:89:cc:38:e6:e7:e0:
         14:a5:ba:c6
-----BEGIN CERTIFICATE-----
MIIDbzCCAlegAwIBAgIBBTANBgkqhkiG9w0BAQsFADARMQ8wDQYDVQQDDAZCQ0Mg
Q0EwHhcNMTcwMTA0MDIyMzMwWhcNMjcwMTAyMDIyMzMwWjBoMQswCQYDVQQGEwJD
TjERMA8GA1UECAwIU2hhbmdoYWkxDDAKBgNVBAoMA0JDQzEWMBQGA1UEAwwNKi5q
aW5nd2VpLmNvbTEgMB4GCSqGSIb3DQEJARYRYWRtaW5AamluZ3dlaS5jb20wggEi
MA0GCSqGSIb3DQEBAQUAA4IBDwAwggEKAoIBAQCjpI1SjxKiVhX87UKR2hXFdlnw
ACuJXxH0C9NSfloQwfDt254fCiPaUWEM83daZ73bAG/09hLyU1VjkTkSVLAIMZMN
QZ0FZASOpwY5v28jWfwZ7mGCeyVg+4Tzo1KnAhS/GkuDxfC1Os3+5s1H7g6zdNTk
8XCW7oRHNPA071TGeVDUkLhaoca0675sgFVkRHUCflEP1tWYIneUjjkQa1Iu9MwE
kkKAvaqA3wUrbcAMXxBQ/IGKpN4s3hPZm3aNvZhvMqU1rsjGd4ED0Lt0GTPGcBug
N12RibFB+r5VXcGYBq4Y+sCtYv8kKiPvFWay9K+4DRz9ewTtgRCHDC3AL82fAgMB
AAGjezB5MAkGA1UdEwQCMAAwLAYJYIZIAYb4QgENBB8WHU9wZW5TU0wgR2VuZXJh
dGVkIENlcnRpZmljYXRlMB0GA1UdDgQWBBTj9gBm4/Ea4G3omVz7SYj/36zzyTAf
BgNVHSMEGDAWgBR3+ZSJfulZd0FHJOoFbljtwB4RRDANBgkqhkiG9w0BAQsFAAOC
AQEAFcty8UQbAcTfaaE3LnpEMb0w/n8bLIW7sRYWf1gdZF37ZsaLImPvYM1lWAWN
dBbJj+18Vo1yNytqh8cvFGcIwGTmUO0VNiEgkUs3xSZzv6id9cNrDggPed8kgjnT
KrFodLuA/6sl7IQ6x75Z27UVPu5tds0NczQseqSpmeK+s2Ndj3XxIcbisIIoAyOc
TICC/3xLHHFQG+k/6gqoDqkEf7CHo8XWTbwF9bg3OfmFd9FNCcCW141kg7LJ74md
5kaJ6Dm43XSuUBt+il0Q2cPy6oRwxom5C2kmw0+S803TFnuMOPZxbbZ/rUThtDG7
iVHThc0uwTnSicw45ufgFKW6xg==
-----END CERTIFICATE-----
